target datalayout = "e-m:e-p270:32:32-p271:32:32-p272:64:64-i64:64-i128:128-f80:128-n8:16:32:64-S128"
target triple = "x86_64-unknown-linux-gnu"

%"class.std::vector" = type { %"struct.std::_Bvector_base" }
%"struct.std::_Bvector_base" = type { %"struct.std::_Bvector_base<std::allocator<bool>>::_Bvector_impl" }
%"struct.std::_Bvector_base<std::allocator<bool>>::_Bvector_impl" = type { %"struct.std::_Bvector_base<std::allocator<bool>>::_Bvector_impl_data" }
%"struct.std::_Bvector_base<std::allocator<bool>>::_Bvector_impl_data" = type { %"struct.std::_Bit_iterator", %"struct.std::_Bit_iterator", ptr }
%"struct.std::_Bit_iterator" = type { %"struct.std::_Bit_iterator_base.base", [4 x i8] }
%"struct.std::_Bit_iterator_base.base" = type <{ ptr, i32 }>
%"class.QuantLib::ProjectedCostFunction" = type { %"class.QuantLib::CostFunction", %"class.QuantLib::Projection", ptr }
%"class.QuantLib::CostFunction" = type { ptr }
%"class.QuantLib::Projection" = type { ptr, i64, %"class.QuantLib::Array", %"class.QuantLib::Array", %"class.std::vector" }
%"class.QuantLib::Array" = type { %"class.std::unique_ptr", i64 }
%"class.std::unique_ptr" = type { %"struct.std::__uniq_ptr_data" }
%"struct.std::__uniq_ptr_data" = type { %"class.std::__uniq_ptr_impl" }
%"class.std::__uniq_ptr_impl" = type { %"class.std::tuple" }
%"class.std::tuple" = type { %"struct.std::_Tuple_impl" }
%"struct.std::_Tuple_impl" = type { %"struct.std::_Head_base.1" }
%"struct.std::_Head_base.1" = type { ptr }

; Function Attrs: mustprogress uwtable
define void @_ZNK8QuantLib21ProjectedCostFunction6valuesERKNS_5ArrayE(ptr dead_on_unwind noalias writable sret(%"class.QuantLib::Array") align 8 %agg.result, ptr noundef nonnull align 8 dereferenceable(104) %this, ptr noundef nonnull align 8 dereferenceable(16) %freeParameters) unnamed_addr #0 align 2 {
entry:
  %result.ptr = alloca ptr, align 8
  %this.addr = alloca ptr, align 8
  %freeParameters.addr = alloca ptr, align 8
  store ptr %agg.result, ptr %result.ptr, align 8
  store ptr %this, ptr %this.addr, align 8, !tbaa !3
  store ptr %freeParameters, ptr %freeParameters.addr, align 8, !tbaa !3
  %this1 = load ptr, ptr %this.addr, align 8
  %add.ptr = getelementptr inbounds i8, ptr %this1, i64 8
  %0 = load ptr, ptr %freeParameters.addr, align 8, !tbaa !3
  call void @_ZNK8QuantLib10Projection17mapFreeParametersERKNS_5ArrayE(ptr noundef nonnull align 8 dereferenceable(88) %add.ptr, ptr noundef nonnull align 8 dereferenceable(16) %0)
  %costFunction_ = getelementptr inbounds nuw %"class.QuantLib::ProjectedCostFunction", ptr %this1, i32 0, i32 2
  %1 = load ptr, ptr %costFunction_, align 8, !tbaa !26
  %add.ptr2 = getelementptr inbounds i8, ptr %this1, i64 8
  %actualParameters_ = getelementptr inbounds nuw %"class.QuantLib::Projection", ptr %add.ptr2, i32 0, i32 3
  %vtable = load ptr, ptr %1, align 8, !tbaa !7
  %vfn = getelementptr inbounds ptr, ptr %vtable, i64 3
  %2 = load ptr, ptr %vfn, align 8
  call void %2(ptr dead_on_unwind writable sret(%"class.QuantLib::Array") align 8 %agg.result, ptr noundef nonnull align 8 dereferenceable(8) %1, ptr noundef nonnull align 8 dereferenceable(16) %actualParameters_)
  ret void
}